(dp0
S'frame_id'
p1
V/ar_marker_0
p2
sS'offset_x'
p3
V-0.1
p4
sS'offset_y'
p5
V0.45
p6
sS'offset_z'
p7
V0.0
p8
sS'resolution'
p9
V0.0015
p10
sS'polygons'
p11
(dp12
S'poly1428606035'
p13
(dp14
S'uid'
p15
V10
p16
sS'text_rect'
p17
cPySide.QtCore
QRect
p18
(I160
I130
I0
I41
tp19
Rp20
sS'polygon'
p21
cPySide.QtGui
QPolygon
p22
((lp23
cPySide.QtCore
QPoint
p24
(I120
I120
tp25
Rp26
ag24
(I200
I120
tp27
Rp28
ag24
(I200
I180
tp29
Rp30
ag24
(I120
I180
tp31
Rp32
atp33
Rp34
sS'name'
p35
V
p36
ssS'poly1428605680'
p37
(dp38
g15
V3
p39
sg17
g18
(I220
I-120
I0
I41
tp40
Rp41
sg21
g22
((lp42
g24
(I160
I-160
tp43
Rp44
ag24
(I280
I-160
tp45
Rp46
ag24
(I280
I-40
tp47
Rp48
ag24
(I160
I-40
tp49
Rp50
atp51
Rp52
sg35
g36
ssS'poly1428606038'
p53
(dp54
g15
V9
p55
sg17
g18
(I80
I130
I0
I41
tp56
Rp57
sg21
g22
((lp58
g24
(I60
I120
tp59
Rp60
ag24
(I100
I120
tp61
Rp62
ag24
(I100
I180
tp63
Rp64
ag24
(I60
I180
tp65
Rp66
atp67
Rp68
sg35
g36
ssV1
p69
(dp70
g15
g69
sg17
g18
(I-57
I-120
I0
I41
tp71
Rp72
sg21
g22
((lp73
g24
(I-120
I-160
tp74
Rp75
ag24
(I0
I-160
tp76
Rp77
ag24
(I0
I-40
tp78
Rp79
ag24
(I-120
I-40
tp80
Rp81
atp82
Rp83
sg35
g36
ssg39
(dp84
g15
g39
sg17
g18
(I220
I-120
I0
I41
tp85
Rp86
sg21
g22
((lp87
g24
(I160
I-160
tp88
Rp89
ag24
(I280
I-160
tp90
Rp91
ag24
(I280
I-40
tp92
Rp93
ag24
(I160
I-40
tp94
Rp95
atp96
Rp97
sg35
g36
ssV2
p98
(dp99
g15
g98
sg17
g18
(I75
I-120
I12
I41
tp100
Rp101
sg21
g22
((lp102
g24
(I20
I-160
tp103
Rp104
ag24
(I140
I-160
tp105
Rp106
ag24
(I140
I-40
tp107
Rp108
ag24
(I20
I-40
tp109
Rp110
atp111
Rp112
sg35
V 
p113
ssV5
p114
(dp115
g15
g114
sg17
g18
(I80
I20
I0
I41
tp116
Rp117
sg21
g22
((lp118
g24
(I40
I0
tp119
Rp120
ag24
(I120
I0
tp121
Rp122
ag24
(I120
I80
tp123
Rp124
ag24
(I40
I80
tp125
Rp126
atp127
Rp128
sg35
g36
ssV4
p129
(dp130
g15
g129
sg17
g18
(I-57
I20
I0
I41
tp131
Rp132
sg21
g22
((lp133
g24
(I-120
I-20
tp134
Rp135
ag24
(I-120
I100
tp136
Rp137
ag24
(I0
I-20
tp138
Rp139
ag24
(I-120
I-20
tp140
Rp141
atp142
Rp143
sg35
g36
ssV7
p144
(dp145
g15
g144
sg17
g18
(I-88
I130
I0
I41
tp146
Rp147
sg21
g22
((lp148
g24
(I-120
I120
tp149
Rp150
ag24
(I-60
I120
tp151
Rp152
ag24
(I-60
I180
tp153
Rp154
ag24
(I-120
I180
tp155
Rp156
atp157
Rp158
sg35
g36
ssV6
p159
(dp160
g15
g159
sg17
g18
(I220
I20
I0
I41
tp161
Rp162
sg21
g22
((lp163
g24
(I160
I-20
tp164
Rp165
ag24
(I280
I-20
tp166
Rp167
ag24
(I280
I100
tp168
Rp169
ag24
(I160
I-20
tp170
Rp171
atp172
Rp173
sg35
g36
ssS'poly1428606027'
p174
(dp175
g15
V8
p176
sg17
g18
(I0
I130
I0
I41
tp177
Rp178
sg21
g22
((lp179
g24
(I-40
I120
tp180
Rp181
ag24
(I40
I120
tp182
Rp183
ag24
(I40
I180
tp184
Rp185
ag24
(I-40
I180
tp186
Rp187
atp188
Rp189
sg35
g36
ssg176
(dp190
g15
g176
sg17
g18
(I0
I130
I0
I41
tp191
Rp192
sg21
g22
((lp193
g24
(I-40
I120
tp194
Rp195
ag24
(I40
I120
tp196
Rp197
ag24
(I40
I180
tp198
Rp199
ag24
(I-40
I180
tp200
Rp201
atp202
Rp203
sg35
g36
ssS'poly1428605512'
p204
(dp205
g15
g69
sg17
g18
(I-57
I-120
I0
I41
tp206
Rp207
sg21
g22
((lp208
g24
(I-120
I-160
tp209
Rp210
ag24
(I0
I-160
tp211
Rp212
ag24
(I0
I-40
tp213
Rp214
ag24
(I-120
I-40
tp215
Rp216
atp217
Rp218
sg35
g36
ssS'poly1428606000'
p219
(dp220
g15
V11
p221
sg17
g18
(I247
I130
I0
I41
tp222
Rp223
sg21
g22
((lp224
g24
(I220
I120
tp225
Rp226
ag24
(I280
I120
tp227
Rp228
ag24
(I280
I180
tp229
Rp230
ag24
(I220
I180
tp231
Rp232
atp233
Rp234
sg35
g36
ssg55
(dp235
g15
g55
sg17
g18
(I80
I130
I0
I41
tp236
Rp237
sg21
g22
((lp238
g24
(I60
I120
tp239
Rp240
ag24
(I100
I120
tp241
Rp242
ag24
(I100
I180
tp243
Rp244
ag24
(I60
I180
tp245
Rp246
atp247
Rp248
sg35
g36
ssS'poly1428605654'
p249
(dp250
g15
g98
sg17
g18
(I75
I-120
I12
I41
tp251
Rp252
sg21
g22
((lp253
g24
(I20
I-160
tp254
Rp255
ag24
(I140
I-160
tp256
Rp257
ag24
(I140
I-40
tp258
Rp259
ag24
(I20
I-40
tp260
Rp261
atp262
Rp263
sg35
g113
ssS'poly1428605710'
p264
(dp265
g15
g129
sg17
g18
(I-57
I20
I0
I41
tp266
Rp267
sg21
g22
((lp268
g24
(I-120
I-20
tp269
Rp270
ag24
(I-120
I100
tp271
Rp272
ag24
(I0
I-20
tp273
Rp274
ag24
(I-120
I-20
tp275
Rp276
atp277
Rp278
sg35
g36
ssS'poly1428605867'
p279
(dp280
g15
g159
sg17
g18
(I220
I20
I0
I41
tp281
Rp282
sg21
g22
((lp283
g24
(I160
I-20
tp284
Rp285
ag24
(I280
I-20
tp286
Rp287
ag24
(I280
I100
tp288
Rp289
ag24
(I160
I-20
tp290
Rp291
atp292
Rp293
sg35
g36
ssg221
(dp294
g15
g221
sg17
g18
(I247
I130
I0
I41
tp295
Rp296
sg21
g22
((lp297
g24
(I220
I120
tp298
Rp299
ag24
(I280
I120
tp300
Rp301
ag24
(I280
I180
tp302
Rp303
ag24
(I220
I180
tp304
Rp305
atp306
Rp307
sg35
g36
ssg16
(dp308
g15
g16
sg17
g18
(I160
I130
I0
I41
tp309
Rp310
sg21
g22
((lp311
g24
(I120
I120
tp312
Rp313
ag24
(I200
I120
tp314
Rp315
ag24
(I200
I180
tp316
Rp317
ag24
(I120
I180
tp318
Rp319
atp320
Rp321
sg35
g36
ssS'poly1428605808'
p322
(dp323
g15
g114
sg17
g18
(I80
I20
I0
I41
tp324
Rp325
sg21
g22
((lp326
g24
(I40
I0
tp327
Rp328
ag24
(I120
I0
tp329
Rp330
ag24
(I120
I80
tp331
Rp332
ag24
(I40
I80
tp333
Rp334
atp335
Rp336
sg35
g36
ssS'poly1428605986'
p337
(dp338
g15
g144
sg17
g18
(I-88
I130
I0
I41
tp339
Rp340
sg21
g22
((lp341
g24
(I-120
I120
tp342
Rp343
ag24
(I-60
I120
tp344
Rp345
ag24
(I-60
I180
tp346
Rp347
ag24
(I-120
I180
tp348
Rp349
atp350
Rp351
sg35
g36
sss.