(dp0
S'frame_id'
p1
S'ar_marker_0'
p2
sS'offset_x'
p3
F-0.45
sS'offset_y'
p4
F-0.03
sS'offset_z'
p5
F0.0
sS'resolution'
p6
F0.0009
sS'polygons'
p7
(dp8
S'poly1428606035'
p9
(dp10
S'polygon'
p11
cPySide.QtGui
QPolygon
p12
((lp13
cPySide.QtCore
QPoint
p14
(I120
I120
tp15
Rp16
ag14
(I200
I120
tp17
Rp18
ag14
(I200
I180
tp19
Rp20
ag14
(I120
I180
tp21
Rp22
atp23
Rp24
sS'text_rect'
p25
cPySide.QtCore
QRect
p26
(I160
I130
I0
I41
tp27
Rp28
sS'uid'
p29
V10
p30
sS'name'
p31
V
p32
ssS'poly1428605680'
p33
(dp34
g11
g12
((lp35
g14
(I160
I-160
tp36
Rp37
ag14
(I280
I-160
tp38
Rp39
ag14
(I280
I-40
tp40
Rp41
ag14
(I160
I-40
tp42
Rp43
atp44
Rp45
sg25
g26
(I220
I-120
I0
I41
tp46
Rp47
sg29
V3
p48
sg31
g32
ssS'poly1428606038'
p49
(dp50
g11
g12
((lp51
g14
(I60
I120
tp52
Rp53
ag14
(I100
I120
tp54
Rp55
ag14
(I100
I180
tp56
Rp57
ag14
(I60
I180
tp58
Rp59
atp60
Rp61
sg25
g26
(I80
I130
I0
I41
tp62
Rp63
sg29
V9
p64
sg31
g32
ssV1
p65
(dp66
g11
g12
((lp67
g14
(I-120
I-160
tp68
Rp69
ag14
(I0
I-160
tp70
Rp71
ag14
(I0
I-40
tp72
Rp73
ag14
(I-120
I-40
tp74
Rp75
atp76
Rp77
sg25
g26
(I-57
I-120
I0
I41
tp78
Rp79
sg29
g65
sg31
g32
ssg48
(dp80
g11
g12
((lp81
g14
(I160
I-160
tp82
Rp83
ag14
(I280
I-160
tp84
Rp85
ag14
(I280
I-40
tp86
Rp87
ag14
(I160
I-40
tp88
Rp89
atp90
Rp91
sg25
g26
(I220
I-120
I0
I41
tp92
Rp93
sg29
g48
sg31
g32
ssV2
p94
(dp95
g11
g12
((lp96
g14
(I20
I-160
tp97
Rp98
ag14
(I140
I-160
tp99
Rp100
ag14
(I140
I-40
tp101
Rp102
ag14
(I20
I-40
tp103
Rp104
atp105
Rp106
sg25
g26
(I75
I-120
I12
I41
tp107
Rp108
sg29
g94
sg31
V 
p109
ssV5
p110
(dp111
g11
g12
((lp112
g14
(I40
I0
tp113
Rp114
ag14
(I120
I0
tp115
Rp116
ag14
(I120
I80
tp117
Rp118
ag14
(I40
I80
tp119
Rp120
atp121
Rp122
sg25
g26
(I80
I20
I0
I41
tp123
Rp124
sg29
g110
sg31
g32
ssV4
p125
(dp126
g11
g12
((lp127
g14
(I-120
I-20
tp128
Rp129
ag14
(I-120
I100
tp130
Rp131
ag14
(I0
I-20
tp132
Rp133
ag14
(I-120
I-20
tp134
Rp135
atp136
Rp137
sg25
g26
(I-57
I20
I0
I41
tp138
Rp139
sg29
g125
sg31
g32
ssV7
p140
(dp141
g11
g12
((lp142
g14
(I-120
I120
tp143
Rp144
ag14
(I-60
I120
tp145
Rp146
ag14
(I-60
I180
tp147
Rp148
ag14
(I-120
I180
tp149
Rp150
atp151
Rp152
sg25
g26
(I-88
I130
I0
I41
tp153
Rp154
sg29
g140
sg31
g32
ssV6
p155
(dp156
g11
g12
((lp157
g14
(I160
I-20
tp158
Rp159
ag14
(I280
I-20
tp160
Rp161
ag14
(I280
I100
tp162
Rp163
ag14
(I160
I-20
tp164
Rp165
atp166
Rp167
sg25
g26
(I220
I20
I0
I41
tp168
Rp169
sg29
g155
sg31
g32
ssS'poly1428606027'
p170
(dp171
g11
g12
((lp172
g14
(I-40
I120
tp173
Rp174
ag14
(I40
I120
tp175
Rp176
ag14
(I40
I180
tp177
Rp178
ag14
(I-40
I180
tp179
Rp180
atp181
Rp182
sg25
g26
(I0
I130
I0
I41
tp183
Rp184
sg29
V8
p185
sg31
g32
ssg185
(dp186
g11
g12
((lp187
g14
(I-40
I120
tp188
Rp189
ag14
(I40
I120
tp190
Rp191
ag14
(I40
I180
tp192
Rp193
ag14
(I-40
I180
tp194
Rp195
atp196
Rp197
sg25
g26
(I0
I130
I0
I41
tp198
Rp199
sg29
g185
sg31
g32
ssS'poly1428605512'
p200
(dp201
g11
g12
((lp202
g14
(I-120
I-160
tp203
Rp204
ag14
(I0
I-160
tp205
Rp206
ag14
(I0
I-40
tp207
Rp208
ag14
(I-120
I-40
tp209
Rp210
atp211
Rp212
sg25
g26
(I-57
I-120
I0
I41
tp213
Rp214
sg29
g65
sg31
g32
ssS'poly1428606000'
p215
(dp216
g11
g12
((lp217
g14
(I220
I120
tp218
Rp219
ag14
(I280
I120
tp220
Rp221
ag14
(I280
I180
tp222
Rp223
ag14
(I220
I180
tp224
Rp225
atp226
Rp227
sg25
g26
(I247
I130
I0
I41
tp228
Rp229
sg29
V11
p230
sg31
g32
ssg64
(dp231
g11
g12
((lp232
g14
(I60
I120
tp233
Rp234
ag14
(I100
I120
tp235
Rp236
ag14
(I100
I180
tp237
Rp238
ag14
(I60
I180
tp239
Rp240
atp241
Rp242
sg25
g26
(I80
I130
I0
I41
tp243
Rp244
sg29
g64
sg31
g32
ssS'poly1428605654'
p245
(dp246
g11
g12
((lp247
g14
(I20
I-160
tp248
Rp249
ag14
(I140
I-160
tp250
Rp251
ag14
(I140
I-40
tp252
Rp253
ag14
(I20
I-40
tp254
Rp255
atp256
Rp257
sg25
g26
(I75
I-120
I12
I41
tp258
Rp259
sg29
g94
sg31
g109
ssS'poly1428605710'
p260
(dp261
g11
g12
((lp262
g14
(I-120
I-20
tp263
Rp264
ag14
(I-120
I100
tp265
Rp266
ag14
(I0
I-20
tp267
Rp268
ag14
(I-120
I-20
tp269
Rp270
atp271
Rp272
sg25
g26
(I-57
I20
I0
I41
tp273
Rp274
sg29
g125
sg31
g32
ssS'poly1428605867'
p275
(dp276
g11
g12
((lp277
g14
(I160
I-20
tp278
Rp279
ag14
(I280
I-20
tp280
Rp281
ag14
(I280
I100
tp282
Rp283
ag14
(I160
I-20
tp284
Rp285
atp286
Rp287
sg25
g26
(I220
I20
I0
I41
tp288
Rp289
sg29
g155
sg31
g32
ssg230
(dp290
g11
g12
((lp291
g14
(I220
I120
tp292
Rp293
ag14
(I280
I120
tp294
Rp295
ag14
(I280
I180
tp296
Rp297
ag14
(I220
I180
tp298
Rp299
atp300
Rp301
sg25
g26
(I247
I130
I0
I41
tp302
Rp303
sg29
g230
sg31
g32
ssg30
(dp304
g11
g12
((lp305
g14
(I120
I120
tp306
Rp307
ag14
(I200
I120
tp308
Rp309
ag14
(I200
I180
tp310
Rp311
ag14
(I120
I180
tp312
Rp313
atp314
Rp315
sg25
g26
(I160
I130
I0
I41
tp316
Rp317
sg29
g30
sg31
g32
ssS'poly1428605808'
p318
(dp319
g11
g12
((lp320
g14
(I40
I0
tp321
Rp322
ag14
(I120
I0
tp323
Rp324
ag14
(I120
I80
tp325
Rp326
ag14
(I40
I80
tp327
Rp328
atp329
Rp330
sg25
g26
(I80
I20
I0
I41
tp331
Rp332
sg29
g110
sg31
g32
ssS'poly1428605986'
p333
(dp334
g11
g12
((lp335
g14
(I-120
I120
tp336
Rp337
ag14
(I-60
I120
tp338
Rp339
ag14
(I-60
I180
tp340
Rp341
ag14
(I-120
I180
tp342
Rp343
atp344
Rp345
sg25
g26
(I-88
I130
I0
I41
tp346
Rp347
sg29
g140
sg31
g32
sss.