(dp0
S'frame_id'
p1
V/bottom_left
p2
sS'offset_x'
p3
V0
p4
sS'offset_y'
p5
V.35
p6
sS'offset_z'
p7
V0.0
p8
sS'resolution'
p9
V0.0017
p10
sS'polygons'
p11
(dp12
Vplay
p13
(dp14
S'uid'
p15
g13
sS'text_rect'
p16
cPySide.QtCore
QRect
p17
(I-156
I-170
I102
I41
tp18
Rp19
sS'polygon'
p20
cPySide.QtGui
QPolygon
p21
((lp22
cPySide.QtCore
QPoint
p23
(I-160
I-200
tp24
Rp25
ag23
(I-60
I-200
tp26
Rp27
ag23
(I-60
I-100
tp28
Rp29
ag23
(I-160
I-100
tp30
Rp31
atp32
Rp33
sS'name'
p34
V  Play
p35
ssVpause
p36
(dp37
g15
g36
sg16
g17
(I-274
I-170
I135
I41
tp38
Rp39
sg20
g21
((lp40
g23
(I-260
I-200
tp41
Rp42
ag23
(I-160
I-200
tp43
Rp44
ag23
(I-160
I-100
tp45
Rp46
ag23
(I-260
I-100
tp47
Rp48
atp49
Rp50
sg34
V  Pause
p51
ssVrew10
p52
(dp53
g15
g52
sg16
g17
(I-235
I-88
I91
I82
tp54
Rp55
sg20
g21
((lp56
g23
(I-260
I-100
tp57
Rp58
ag23
(I-160
I-100
tp59
Rp60
ag23
(I-160
I0
tp61
Rp62
ag23
(I-260
I0
tp63
Rp64
atp65
Rp66
sg34
VBack\u000a10s
p67
ssVmute
p68
(dp69
g15
g68
sg16
g17
(I-166
I30
I117
I41
tp70
Rp71
sg20
g21
((lp72
g23
(I-160
I0
tp73
Rp74
ag23
(I-60
I0
tp75
Rp76
ag23
(I-60
I100
tp77
Rp78
ag23
(I-160
I100
tp79
Rp80
atp81
Rp82
sg34
V  Mute
p83
ssVvolup
p84
(dp85
g15
g84
sg16
g17
(I-61
I-170
I123
I41
tp86
Rp87
sg20
g21
((lp88
g23
(I-60
I-200
tp89
Rp90
ag23
(I40
I-200
tp91
Rp92
ag23
(I40
I-100
tp93
Rp94
ag23
(I-60
I-100
tp95
Rp96
atp97
Rp98
sg34
V  Vol +
p99
ssVff10
p100
(dp101
g15
g100
sg16
g17
(I-168
I-88
I150
I82
tp102
Rp103
sg20
g21
((lp104
g23
(I-160
I-100
tp105
Rp106
ag23
(I-60
I-100
tp107
Rp108
ag23
(I-60
I0
tp109
Rp110
ag23
(I-160
I0
tp111
Rp112
atp113
Rp114
sg34
VForward\u000a10s
p115
ssVvoldn
p116
(dp117
g15
g116
sg16
g17
(I-52
I30
I106
I41
tp118
Rp119
sg20
g21
((lp120
g23
(I-60
I0
tp121
Rp122
ag23
(I40
I0
tp123
Rp124
ag23
(I40
I100
tp125
Rp126
ag23
(I-60
I100
tp127
Rp128
atp129
Rp130
sg34
V  Vol -
p131
sss.