(dp0
S'frame_id'
p1
S'ar_marker_0'
p2
sS'offset_x'
p3
F-0.28
sS'offset_y'
p4
F-0.1
sS'offset_z'
p5
F0.0
sS'resolution'
p6
F0.001
sS'polygons'
p7
(dp8
Vplay
p9
(dp10
S'polygon'
p11
cPySide.QtGui
QPolygon
p12
((lp13
cPySide.QtCore
QPoint
p14
(I-160
I-200
tp15
Rp16
ag14
(I-60
I-200
tp17
Rp18
ag14
(I-60
I-100
tp19
Rp20
ag14
(I-160
I-100
tp21
Rp22
atp23
Rp24
sS'text_rect'
p25
cPySide.QtCore
QRect
p26
(I-156
I-170
I102
I41
tp27
Rp28
sS'uid'
p29
g9
sS'name'
p30
V  Play
p31
ssVpause
p32
(dp33
g11
g12
((lp34
g14
(I-260
I-200
tp35
Rp36
ag14
(I-160
I-200
tp37
Rp38
ag14
(I-160
I-100
tp39
Rp40
ag14
(I-260
I-100
tp41
Rp42
atp43
Rp44
sg25
g26
(I-274
I-170
I135
I41
tp45
Rp46
sg29
g32
sg30
V  Pause
p47
ssVrew10
p48
(dp49
g11
g12
((lp50
g14
(I-260
I-100
tp51
Rp52
ag14
(I-160
I-100
tp53
Rp54
ag14
(I-160
I0
tp55
Rp56
ag14
(I-260
I0
tp57
Rp58
atp59
Rp60
sg25
g26
(I-235
I-88
I91
I82
tp61
Rp62
sg29
g48
sg30
VBack\u000a10s
p63
ssVmute
p64
(dp65
g11
g12
((lp66
g14
(I-160
I0
tp67
Rp68
ag14
(I-60
I0
tp69
Rp70
ag14
(I-60
I100
tp71
Rp72
ag14
(I-160
I100
tp73
Rp74
atp75
Rp76
sg25
g26
(I-166
I30
I117
I41
tp77
Rp78
sg29
g64
sg30
V  Mute
p79
ssVvolup
p80
(dp81
g11
g12
((lp82
g14
(I-60
I-200
tp83
Rp84
ag14
(I40
I-200
tp85
Rp86
ag14
(I40
I-100
tp87
Rp88
ag14
(I-60
I-100
tp89
Rp90
atp91
Rp92
sg25
g26
(I-61
I-170
I123
I41
tp93
Rp94
sg29
g80
sg30
V  Vol +
p95
ssVff10
p96
(dp97
g11
g12
((lp98
g14
(I-160
I-100
tp99
Rp100
ag14
(I-60
I-100
tp101
Rp102
ag14
(I-60
I0
tp103
Rp104
ag14
(I-160
I0
tp105
Rp106
atp107
Rp108
sg25
g26
(I-168
I-88
I150
I82
tp109
Rp110
sg29
g96
sg30
VForward\u000a10s
p111
ssVvoldn
p112
(dp113
g11
g12
((lp114
g14
(I-60
I0
tp115
Rp116
ag14
(I40
I0
tp117
Rp118
ag14
(I40
I100
tp119
Rp120
ag14
(I-60
I100
tp121
Rp122
atp123
Rp124
sg25
g26
(I-52
I30
I106
I41
tp125
Rp126
sg29
g112
sg30
V  Vol -
p127
sss.